Certificate:
    Data:
        Version: 3 (0x2)
        Serial Number: 1 (0x1)
    Signature Algorithm: sha256WithRSAEncryption
        Issuer: C=CN, ST=BJ, L=Beijing, O=Hypersh, OU=HyperHQ, CN=Hypersh CA/name=EasyRSA/emailAddress=jimmy@hyper.sh
        Validity
            Not Before: Dec 22 07:30:55 2016 GMT
            Not After : Dec 20 07:30:55 2026 GMT
        Subject: C=CN, ST=BJ, L=Beijing, O=Hypersh, OU=HyperHQ, CN=server/name=EasyRSA/emailAddress=jimmy@hyper.sh
        Subject Public Key Info:
            Public Key Algorithm: rsaEncryption
                Public-Key: (2048 bit)
                Modulus:
                    00:da:b8:15:66:ce:4c:1b:bb:1d:66:ec:70:1f:26:
                    fc:28:bf:e9:90:fe:8e:32:58:e6:78:de:d5:b5:dc:
                    db:97:09:b8:32:cc:c0:56:06:d8:0b:3a:bb:2c:8e:
                    3e:f7:94:45:8b:3f:df:8a:61:8b:c0:56:ec:0a:1a:
                    d8:ae:b2:e4:c7:11:c4:e6:c9:b1:4b:09:d5:3d:88:
                    aa:b1:1d:4a:e7:ae:23:b0:04:f5:85:f3:93:16:fa:
                    83:8c:45:5b:7e:56:09:b0:51:8f:70:1f:7f:f9:3e:
                    a5:a2:e0:ee:93:a1:ec:d2:6f:d3:65:72:e9:a4:e6:
                    7c:59:fb:79:c3:b0:e6:94:ac:81:38:75:4c:6c:40:
                    f8:38:86:b9:29:2d:48:95:ea:12:45:cf:4f:82:8a:
                    a5:3c:f2:10:0a:02:c9:82:ec:de:d9:88:24:e3:2c:
                    c1:c1:99:77:39:22:0d:11:9f:ac:c9:25:a6:9e:f0:
                    e9:e0:6e:c7:7e:d2:c9:66:8d:cc:27:57:c0:95:ce:
                    87:bc:6e:c8:74:eb:9d:70:d1:e1:05:1c:de:93:5a:
                    bd:43:8c:8d:6d:db:63:fd:2c:1b:88:e1:f7:c1:ea:
                    bc:1e:62:f5:00:55:3d:f2:e1:9c:1d:c6:64:0e:02:
                    63:fd:87:ca:2d:4a:09:34:ad:e5:d1:97:e3:c3:97:
                    ab:45
                Exponent: 65537 (0x10001)
        X509v3 extensions:
            X509v3 Basic Constraints: 
                CA:FALSE
            Netscape Cert Type: 
                SSL Server
            Netscape Comment: 
                Easy-RSA Generated Server Certificate
            X509v3 Subject Key Identifier: 
                DF:35:59:86:CE:28:B0:26:AE:C9:79:1F:93:54:18:BE:4E:EB:66:D8
            X509v3 Authority Key Identifier: 
                keyid:65:0A:12:90:6B:84:5A:72:79:96:50:38:5A:58:FF:0B:9A:63:AC:A4
                DirName:/C=CN/ST=BJ/L=Beijing/O=Hypersh/OU=HyperHQ/CN=Hypersh CA/name=EasyRSA/emailAddress=jimmy@hyper.sh
                serial:C4:46:95:36:E0:44:F0:E2

            X509v3 Extended Key Usage: 
                TLS Web Server Authentication
            X509v3 Key Usage: 
                Digital Signature, Key Encipherment
    Signature Algorithm: sha256WithRSAEncryption
         9d:26:5f:ba:45:be:2f:49:76:50:cc:66:df:35:1b:91:a2:5a:
         f8:26:56:1e:6a:bb:0c:f3:5b:ea:a3:d4:1f:e0:a7:47:e3:11:
         8a:29:d2:f3:64:bc:90:c3:2c:7d:4c:fc:e9:ad:91:54:1d:da:
         66:ef:c6:74:d3:c6:e2:34:16:78:ab:34:87:a7:6a:b3:bb:a3:
         70:c7:d5:05:ee:aa:7d:d3:2c:b2:c8:65:fe:12:4d:e8:4b:d9:
         ad:25:ac:6c:a2:0a:69:5a:d3:21:5a:ca:7c:eb:28:56:2d:38:
         21:bd:e5:c4:69:2a:ba:7b:99:53:dc:fb:7f:76:4d:48:03:90:
         eb:0f:b9:25:dc:8b:a9:ee:ce:03:78:c4:c4:8a:48:a8:80:b2:
         46:73:dc:64:2b:4f:9d:b0:65:5e:bd:2f:9e:ad:26:ae:ee:cf:
         1c:08:16:c6:53:60:1b:f0:14:47:67:aa:70:d9:8a:06:0f:ec:
         05:13:35:64:20:3e:aa:1a:66:ba:0e:08:fc:35:b2:ea:a3:58:
         8f:aa:aa:23:8e:9b:bb:23:99:bc:c6:7c:19:34:b1:0e:a9:c9:
         bf:5c:45:c2:7d:98:ee:80:47:c1:3b:0b:18:89:24:9e:94:1f:
         6a:8b:0b:a9:e6:96:42:27:0d:ae:35:e3:c7:50:ff:72:ad:66:
         67:db:da:2a
-----BEGIN CERTIFICATE-----
MIIFDjCCA/agAwIBAgIBATANBgkqhkiG9w0BAQsFADCBljELMAkGA1UEBhMCQ04x
CzAJBgNVBAgTAkJKMRAwDgYDVQQHEwdCZWlqaW5nMRAwDgYDVQQKEwdIeXBlcnNo
MRAwDgYDVQQLEwdIeXBlckhRMRMwEQYDVQQDEwpIeXBlcnNoIENBMRAwDgYDVQQp
EwdFYXN5UlNBMR0wGwYJKoZIhvcNAQkBFg5qaW1teUBoeXBlci5zaDAeFw0xNjEy
MjIwNzMwNTVaFw0yNjEyMjAwNzMwNTVaMIGSMQswCQYDVQQGEwJDTjELMAkGA1UE
CBMCQkoxEDAOBgNVBAcTB0JlaWppbmcxEDAOBgNVBAoTB0h5cGVyc2gxEDAOBgNV
BAsTB0h5cGVySFExDzANBgNVBAMTBnNlcnZlcjEQMA4GA1UEKRMHRWFzeVJTQTEd
MBsGCSqGSIb3DQEJARYOamltbXlAaHlwZXIuc2gwggEiMA0GCSqGSIb3DQEBAQUA
A4IBDwAwggEKAoIBAQDauBVmzkwbux1m7HAfJvwov+mQ/o4yWOZ43tW13NuXCbgy
zMBWBtgLOrssjj73lEWLP9+KYYvAVuwKGtiusuTHEcTmybFLCdU9iKqxHUrnriOw
BPWF85MW+oOMRVt+VgmwUY9wH3/5PqWi4O6ToezSb9Nlcumk5nxZ+3nDsOaUrIE4
dUxsQPg4hrkpLUiV6hJFz0+CiqU88hAKAsmC7N7ZiCTjLMHBmXc5Ig0Rn6zJJaae
8Ongbsd+0slmjcwnV8CVzoe8bsh0651w0eEFHN6TWr1DjI1t22P9LBuI4ffB6rwe
YvUAVT3y4ZwdxmQOAmP9h8otSgk0reXRl+PDl6tFAgMBAAGjggFnMIIBYzAJBgNV
HRMEAjAAMBEGCWCGSAGG+EIBAQQEAwIGQDA0BglghkgBhvhCAQ0EJxYlRWFzeS1S
U0EgR2VuZXJhdGVkIFNlcnZlciBDZXJ0aWZpY2F0ZTAdBgNVHQ4EFgQU3zVZhs4o
sCauyXkfk1QYvk7rZtgwgcsGA1UdIwSBwzCBwIAUZQoSkGuEWnJ5llA4Wlj/C5pj
rKShgZykgZkwgZYxCzAJBgNVBAYTAkNOMQswCQYDVQQIEwJCSjEQMA4GA1UEBxMH
QmVpamluZzEQMA4GA1UEChMHSHlwZXJzaDEQMA4GA1UECxMHSHlwZXJIUTETMBEG
A1UEAxMKSHlwZXJzaCBDQTEQMA4GA1UEKRMHRWFzeVJTQTEdMBsGCSqGSIb3DQEJ
ARYOamltbXlAaHlwZXIuc2iCCQDERpU24ETw4jATBgNVHSUEDDAKBggrBgEFBQcD
ATALBgNVHQ8EBAMCBaAwDQYJKoZIhvcNAQELBQADggEBAJ0mX7pFvi9JdlDMZt81
G5GiWvgmVh5quwzzW+qj1B/gp0fjEYop0vNkvJDDLH1M/OmtkVQd2mbvxnTTxuI0
FnirNIenarO7o3DH1QXuqn3TLLLIZf4STehL2a0lrGyiCmla0yFaynzrKFYtOCG9
5cRpKrp7mVPc+392TUgDkOsPuSXci6nuzgN4xMSKSKiAskZz3GQrT52wZV69L56t
Jq7uzxwIFsZTYBvwFEdnqnDZigYP7AUTNWQgPqoaZroOCPw1suqjWI+qqiOOm7sj
mbzGfBk0sQ6pyb9cRcJ9mO6AR8E7CxiJJJ6UH2qLC6nmlkInDa4148dQ/3KtZmfb
2io=
-----END CERTIFICATE-----
